; Function Attrs: mustprogress nofree norecurse nosync nounwind willreturn memory(readwrite, inaccessiblemem: none) uwtable
define dso_local void @_ZN10cmMakefile12PopLoopBlockEv(ptr nocapture noundef nonnull readonly align 8 dereferenceable(3520) %0) local_unnamed_addr #17 align 2 {
  %2 = getelementptr inbounds i8, ptr %0, i64 912
  %3 = load ptr, ptr %2, align 8, !noalias !425
  %4 = getelementptr inbounds i8, ptr %0, i64 920
  %5 = load ptr, ptr %4, align 8, !noalias !425
  %6 = icmp eq ptr %3, %5
  br i1 %6, label %7, label %_ZNSt5stackIiSt5dequeIiSaIiEEE3topEv.exit

7:                                                ; preds = %1
  %8 = getelementptr inbounds i8, ptr %0, i64 936
  %9 = load ptr, ptr %8, align 8, !noalias !425
  %10 = getelementptr inbounds i8, ptr %9, i64 -8
  %11 = load ptr, ptr %10, align 8
  %12 = getelementptr inbounds i8, ptr %11, i64 512
  br label %_ZNSt5stackIiSt5dequeIiSaIiEEE3topEv.exit

_ZNSt5stackIiSt5dequeIiSaIiEEE3topEv.exit:        ; preds = %1, %7
  %13 = phi ptr [ %12, %7 ], [ %3, %1 ]
  %14 = getelementptr inbounds i8, ptr %13, i64 -4
  %15 = load i32, ptr %14, align 4
  %16 = add nsw i32 %15, -1
  store i32 %16, ptr %14, align 4
  ret void
}